target datalayout = "e-m:e-p270:32:32-p271:32:32-p272:64:64-i64:64-i128:128-f80:128-n8:16:32:64-S128"
target triple = "x86_64-pc-linux-gnu"

%struct.stbsp__context = type { ptr, i32, i32, [512 x i8] }

; Function Attrs: mustprogress nounwind uwtable
define internal noundef ptr @_ZL21stbsp__clamp_callbackPKcPvi(ptr noundef %0, ptr noundef %1, i32 noundef %2) #6 {
  %4 = alloca ptr, align 8
  %5 = alloca ptr, align 8
  %6 = alloca ptr, align 8
  %7 = alloca i32, align 4
  %8 = alloca ptr, align 8
  %9 = alloca ptr, align 8
  %10 = alloca ptr, align 8
  %11 = alloca ptr, align 8
  %12 = alloca i32, align 4
  store ptr %0, ptr %5, align 8, !tbaa !10
  store ptr %1, ptr %6, align 8, !tbaa !9
  store i32 %2, ptr %7, align 4, !tbaa !14
  call void @llvm.lifetime.start.p0(i64 8, ptr %8) #3
  %13 = load ptr, ptr %6, align 8, !tbaa !9
  store ptr %13, ptr %8, align 8, !tbaa !98
  %14 = load i32, ptr %7, align 4, !tbaa !14
  %15 = load ptr, ptr %8, align 8, !tbaa !98
  %16 = getelementptr inbounds nuw %struct.stbsp__context, ptr %15, i32 0, i32 2
  %17 = load i32, ptr %16, align 4, !tbaa !94
  %18 = add nsw i32 %17, %14
  store i32 %18, ptr %16, align 4, !tbaa !94
  %19 = load i32, ptr %7, align 4, !tbaa !14
  %20 = load ptr, ptr %8, align 8, !tbaa !98
  %21 = getelementptr inbounds nuw %struct.stbsp__context, ptr %20, i32 0, i32 1
  %22 = load i32, ptr %21, align 8, !tbaa !97
  %23 = icmp sgt i32 %19, %22
  br i1 %23, label %24, label %28

24:                                               ; preds = %3
  %25 = load ptr, ptr %8, align 8, !tbaa !98
  %26 = getelementptr inbounds nuw %struct.stbsp__context, ptr %25, i32 0, i32 1
  %27 = load i32, ptr %26, align 8, !tbaa !97
  store i32 %27, ptr %7, align 4, !tbaa !14
  br label %28

28:                                               ; preds = %24, %3
  %29 = load i32, ptr %7, align 4, !tbaa !14
  %30 = icmp ne i32 %29, 0
  br i1 %30, label %31, label %69

31:                                               ; preds = %28
  %32 = load ptr, ptr %5, align 8, !tbaa !10
  %33 = load ptr, ptr %8, align 8, !tbaa !98
  %34 = getelementptr inbounds nuw %struct.stbsp__context, ptr %33, i32 0, i32 0
  %35 = load ptr, ptr %34, align 8, !tbaa !96
  %36 = icmp ne ptr %32, %35
  br i1 %36, label %37, label %57

37:                                               ; preds = %31
  call void @llvm.lifetime.start.p0(i64 8, ptr %9) #3
  call void @llvm.lifetime.start.p0(i64 8, ptr %10) #3
  call void @llvm.lifetime.start.p0(i64 8, ptr %11) #3
  %38 = load ptr, ptr %8, align 8, !tbaa !98
  %39 = getelementptr inbounds nuw %struct.stbsp__context, ptr %38, i32 0, i32 0
  %40 = load ptr, ptr %39, align 8, !tbaa !96
  store ptr %40, ptr %11, align 8, !tbaa !10
  %41 = load ptr, ptr %5, align 8, !tbaa !10
  store ptr %41, ptr %9, align 8, !tbaa !10
  %42 = load ptr, ptr %5, align 8, !tbaa !10
  %43 = load i32, ptr %7, align 4, !tbaa !14
  %44 = sext i32 %43 to i64
  %45 = getelementptr inbounds i8, ptr %42, i64 %44
  store ptr %45, ptr %10, align 8, !tbaa !10
  br label %46

46:                                               ; preds = %52, %37
  %47 = load ptr, ptr %9, align 8, !tbaa !10
  %48 = getelementptr inbounds nuw i8, ptr %47, i32 1
  store ptr %48, ptr %9, align 8, !tbaa !10
  %49 = load i8, ptr %47, align 1, !tbaa !8
  %50 = load ptr, ptr %11, align 8, !tbaa !10
  %51 = getelementptr inbounds nuw i8, ptr %50, i32 1
  store ptr %51, ptr %11, align 8, !tbaa !10
  store i8 %49, ptr %50, align 1, !tbaa !8
  br label %52

52:                                               ; preds = %46
  %53 = load ptr, ptr %9, align 8, !tbaa !10
  %54 = load ptr, ptr %10, align 8, !tbaa !10
  %55 = icmp ult ptr %53, %54
  br i1 %55, label %46, label %56, !llvm.loop !100

56:                                               ; preds = %52
  call void @llvm.lifetime.end.p0(i64 8, ptr %11) #3
  call void @llvm.lifetime.end.p0(i64 8, ptr %10) #3
  call void @llvm.lifetime.end.p0(i64 8, ptr %9) #3
  br label %57

57:                                               ; preds = %56, %31
  %58 = load i32, ptr %7, align 4, !tbaa !14
  %59 = load ptr, ptr %8, align 8, !tbaa !98
  %60 = getelementptr inbounds nuw %struct.stbsp__context, ptr %59, i32 0, i32 0
  %61 = load ptr, ptr %60, align 8, !tbaa !96
  %62 = sext i32 %58 to i64
  %63 = getelementptr inbounds i8, ptr %61, i64 %62
  store ptr %63, ptr %60, align 8, !tbaa !96
  %64 = load i32, ptr %7, align 4, !tbaa !14
  %65 = load ptr, ptr %8, align 8, !tbaa !98
  %66 = getelementptr inbounds nuw %struct.stbsp__context, ptr %65, i32 0, i32 1
  %67 = load i32, ptr %66, align 8, !tbaa !97
  %68 = sub nsw i32 %67, %64
  store i32 %68, ptr %66, align 8, !tbaa !97
  br label %69

69:                                               ; preds = %57, %28
  %70 = load ptr, ptr %8, align 8, !tbaa !98
  %71 = getelementptr inbounds nuw %struct.stbsp__context, ptr %70, i32 0, i32 1
  %72 = load i32, ptr %71, align 8, !tbaa !97
  %73 = icmp sle i32 %72, 0
  br i1 %73, label %74, label %78

74:                                               ; preds = %69
  %75 = load ptr, ptr %8, align 8, !tbaa !98
  %76 = getelementptr inbounds nuw %struct.stbsp__context, ptr %75, i32 0, i32 3
  %77 = getelementptr inbounds [512 x i8], ptr %76, i64 0, i64 0
  store ptr %77, ptr %4, align 8
  store i32 1, ptr %12, align 4
  br label %93

78:                                               ; preds = %69
  %79 = load ptr, ptr %8, align 8, !tbaa !98
  %80 = getelementptr inbounds nuw %struct.stbsp__context, ptr %79, i32 0, i32 1
  %81 = load i32, ptr %80, align 8, !tbaa !97
  %82 = icmp sge i32 %81, 512
  br i1 %82, label %83, label %87

83:                                               ; preds = %78
  %84 = load ptr, ptr %8, align 8, !tbaa !98
  %85 = getelementptr inbounds nuw %struct.stbsp__context, ptr %84, i32 0, i32 0
  %86 = load ptr, ptr %85, align 8, !tbaa !96
  br label %91

87:                                               ; preds = %78
  %88 = load ptr, ptr %8, align 8, !tbaa !98
  %89 = getelementptr inbounds nuw %struct.stbsp__context, ptr %88, i32 0, i32 3
  %90 = getelementptr inbounds [512 x i8], ptr %89, i64 0, i64 0
  br label %91

91:                                               ; preds = %87, %83
  %92 = phi ptr [ %86, %83 ], [ %90, %87 ]
  store ptr %92, ptr %4, align 8
  store i32 1, ptr %12, align 4
  br label %93

93:                                               ; preds = %91, %74
  call void @llvm.lifetime.end.p0(i64 8, ptr %8) #3
  %94 = load ptr, ptr %4, align 8
  ret ptr %94
}

; Function Attrs: mustprogress uwtable
define hidden i32 @oiio_stbsp_vsnprintf(ptr noundef %0, i32 noundef %1, ptr noundef %2, ptr noundef %3) #7 {
  %5 = alloca ptr, align 8
  %6 = alloca i32, align 4
  %7 = alloca ptr, align 8
  %8 = alloca ptr, align 8
  %9 = alloca %struct.stbsp__context, align 8
  %10 = alloca i32, align 4
  store ptr %0, ptr %5, align 8, !tbaa !10
  store i32 %1, ptr %6, align 4, !tbaa !14
  store ptr %2, ptr %7, align 8, !tbaa !10
  store ptr %3, ptr %8, align 8, !tbaa !12
  call void @llvm.lifetime.start.p0(i64 528, ptr %9) #3
  %11 = load i32, ptr %6, align 4, !tbaa !14
  %12 = icmp eq i32 %11, 0
  br i1 %12, label %13, label %23

13:                                               ; preds = %4
  %14 = load ptr, ptr %5, align 8, !tbaa !10
  %15 = icmp ne ptr %14, null
  br i1 %15, label %23, label %16

16:                                               ; preds = %13
  %17 = getelementptr inbounds nuw %struct.stbsp__context, ptr %9, i32 0, i32 2
  store i32 0, ptr %17, align 4, !tbaa !94
  %18 = getelementptr inbounds nuw %struct.stbsp__context, ptr %9, i32 0, i32 3
  %19 = getelementptr inbounds [512 x i8], ptr %18, i64 0, i64 0
  %20 = load ptr, ptr %7, align 8, !tbaa !10
  %21 = load ptr, ptr %8, align 8, !tbaa !12
  %22 = call i32 @oiio_stbsp_vsprintfcb(ptr noundef @_ZL27stbsp__count_clamp_callbackPKcPvi, ptr noundef %9, ptr noundef %19, ptr noundef %20, ptr noundef %21)
  br label %51

23:                                               ; preds = %13, %4
  call void @llvm.lifetime.start.p0(i64 4, ptr %10) #3
  %24 = load ptr, ptr %5, align 8, !tbaa !10
  %25 = getelementptr inbounds nuw %struct.stbsp__context, ptr %9, i32 0, i32 0
  store ptr %24, ptr %25, align 8, !tbaa !96
  %26 = load i32, ptr %6, align 4, !tbaa !14
  %27 = getelementptr inbounds nuw %struct.stbsp__context, ptr %9, i32 0, i32 1
  store i32 %26, ptr %27, align 8, !tbaa !97
  %28 = getelementptr inbounds nuw %struct.stbsp__context, ptr %9, i32 0, i32 2
  store i32 0, ptr %28, align 4, !tbaa !94
  %29 = call noundef ptr @_ZL21stbsp__clamp_callbackPKcPvi(ptr noundef null, ptr noundef %9, i32 noundef 0)
  %30 = load ptr, ptr %7, align 8, !tbaa !10
  %31 = load ptr, ptr %8, align 8, !tbaa !12
  %32 = call i32 @oiio_stbsp_vsprintfcb(ptr noundef @_ZL21stbsp__clamp_callbackPKcPvi, ptr noundef %9, ptr noundef %29, ptr noundef %30, ptr noundef %31)
  %33 = getelementptr inbounds nuw %struct.stbsp__context, ptr %9, i32 0, i32 0
  %34 = load ptr, ptr %33, align 8, !tbaa !96
  %35 = load ptr, ptr %5, align 8, !tbaa !10
  %36 = ptrtoint ptr %34 to i64
  %37 = ptrtoint ptr %35 to i64
  %38 = sub i64 %36, %37
  %39 = trunc i64 %38 to i32
  store i32 %39, ptr %10, align 4, !tbaa !14
  %40 = load i32, ptr %10, align 4, !tbaa !14
  %41 = load i32, ptr %6, align 4, !tbaa !14
  %42 = icmp sge i32 %40, %41
  br i1 %42, label %43, label %46

43:                                               ; preds = %23
  %44 = load i32, ptr %6, align 4, !tbaa !14
  %45 = sub nsw i32 %44, 1
  store i32 %45, ptr %10, align 4, !tbaa !14
  br label %46

46:                                               ; preds = %43, %23
  %47 = load ptr, ptr %5, align 8, !tbaa !10
  %48 = load i32, ptr %10, align 4, !tbaa !14
  %49 = sext i32 %48 to i64
  %50 = getelementptr inbounds i8, ptr %47, i64 %49
  store i8 0, ptr %50, align 1, !tbaa !8
  call void @llvm.lifetime.end.p0(i64 4, ptr %10) #3
  br label %51

51:                                               ; preds = %46, %16
  %52 = getelementptr inbounds nuw %struct.stbsp__context, ptr %9, i32 0, i32 2
  %53 = load i32, ptr %52, align 4, !tbaa !94
  call void @llvm.lifetime.end.p0(i64 528, ptr %9) #3
  ret i32 %53
}